SF:/Users/andy/dev/advent-of-code-24/bin/day01/historian_histeria.rs
FN:6,_RNvCsf4jeQdmfGL0_18historian_histeria19get_sorted_abs_diff
FN:13,_RNvCsf4jeQdmfGL0_18historian_histeria4main
FNDA:0,_RNvCsf4jeQdmfGL0_18historian_histeria19get_sorted_abs_diff
FNDA:0,_RNvCsf4jeQdmfGL0_18historian_histeria4main
FNF:2
FNH:0
DA:6,0
DA:7,0
DA:8,0
DA:9,0
DA:10,0
DA:11,0
DA:13,0
DA:14,0
DA:15,0
DA:16,0
DA:17,0
DA:18,0
DA:19,0
DA:20,0
DA:21,0
DA:22,0
DA:23,0
DA:24,0
DA:25,0
BRF:0
BRH:0
LF:19
LH:0
end_of_record
SF:/Users/andy/dev/advent-of-code-24/bin/day02/red_nosed_reports.rs
FN:4,_RNvCslvh7dnsZp5W_17red_nosed_reports5part1
FN:8,_RNCNvCslvh7dnsZp5W_17red_nosed_reports5part10B3_
FN:12,_RNCNCNvCslvh7dnsZp5W_17red_nosed_reports5part100B5_
FN:20,_RNvCslvh7dnsZp5W_17red_nosed_reports4main
FNDA:0,_RNvCslvh7dnsZp5W_17red_nosed_reports5part1
FNDA:0,_RNCNvCslvh7dnsZp5W_17red_nosed_reports5part10B3_
FNDA:0,_RNCNCNvCslvh7dnsZp5W_17red_nosed_reports5part100B5_
FNDA:0,_RNvCslvh7dnsZp5W_17red_nosed_reports4main
FNF:4
FNH:0
DA:4,0
DA:5,0
DA:6,0
DA:7,0
DA:8,0
DA:9,0
DA:10,0
DA:11,0
DA:12,0
DA:13,0
DA:14,0
DA:15,0
DA:16,0
DA:17,0
DA:18,0
DA:20,0
DA:21,0
DA:22,0
DA:23,0
DA:24,0
DA:25,0
DA:26,0
DA:27,0
BRF:0
BRH:0
LF:26
LH:0
end_of_record
SF:/Users/andy/dev/advent-of-code-24/src/day01/build_count_lookup.rs
FN:25,_RNvNtNtNtCscuLvcX4xFix_3aoc5day0118build_count_lookup5testss_22can_build_count_lookup
FN:42,_RNvNtNtNtCscuLvcX4xFix_3aoc5day0118build_count_lookup5testss_38can_build_count_lookup_with_duplicates
FN:50,_RNvNtNtNtCscuLvcX4xFix_3aoc5day0118build_count_lookup5testss_44can_build_count_lookup_with_negative_numbers
FN:66,_RNvNtNtNtCscuLvcX4xFix_3aoc5day0118build_count_lookup5testss_41can_build_count_lookup_with_mixed_numbers
FN:8,_RNCNvNtNtCscuLvcX4xFix_3aoc5day0118build_count_lookup18build_count_lookup0B7_
FN:5,_RNvNtNtCscuLvcX4xFix_3aoc5day0118build_count_lookup18build_count_lookup
FN:15,_RNvNtNtCscuLvcX4xFix_3aoc5day0118build_count_lookup40dereference_count_and_increment_in_place
FNDA:1,_RNvNtNtNtCscuLvcX4xFix_3aoc5day0118build_count_lookup5testss_22can_build_count_lookup
FNDA:1,_RNvNtNtNtCscuLvcX4xFix_3aoc5day0118build_count_lookup5testss_38can_build_count_lookup_with_duplicates
FNDA:1,_RNvNtNtNtCscuLvcX4xFix_3aoc5day0118build_count_lookup5testss_44can_build_count_lookup_with_negative_numbers
FNDA:1,_RNvNtNtNtCscuLvcX4xFix_3aoc5day0118build_count_lookup5testss_41can_build_count_lookup_with_mixed_numbers
FNDA:70,_RNCNvNtNtCscuLvcX4xFix_3aoc5day0118build_count_lookup18build_count_lookup0B7_
FNDA:9,_RNvNtNtCscuLvcX4xFix_3aoc5day0118build_count_lookup18build_count_lookup
FNDA:70,_RNvNtNtCscuLvcX4xFix_3aoc5day0118build_count_lookup40dereference_count_and_increment_in_place
FNF:7
FNH:7
DA:5,9
DA:6,9
DA:7,9
DA:8,70
DA:9,70
DA:10,70
DA:11,9
DA:12,9
DA:13,9
DA:15,70
DA:16,70
DA:17,70
DA:18,70
DA:25,1
DA:26,1
DA:27,1
DA:28,1
DA:29,1
DA:30,1
DA:31,1
DA:32,1
DA:33,1
DA:34,1
DA:35,1
DA:36,1
DA:37,1
DA:38,1
DA:39,1
DA:42,1
DA:43,1
DA:44,1
DA:45,1
DA:46,1
DA:47,1
DA:50,1
DA:51,1
DA:52,1
DA:53,1
DA:54,1
DA:55,1
DA:56,1
DA:57,1
DA:58,1
DA:59,1
DA:60,1
DA:61,1
DA:62,1
DA:63,1
DA:66,1
DA:67,1
DA:68,1
DA:69,1
DA:70,1
DA:71,1
DA:72,1
DA:73,1
DA:74,1
DA:75,1
DA:76,1
DA:77,1
DA:78,1
DA:79,1
BRF:0
BRH:0
LF:64
LH:64
end_of_record
SF:/Users/andy/dev/advent-of-code-24/src/day01/data_to_vec.rs
FN:5,_RNCNvNtNtCscuLvcX4xFix_3aoc5day0111data_to_vec11data_to_vec0B7_
FN:1,_RNvNtNtCscuLvcX4xFix_3aoc5day0111data_to_vec11data_to_vec
FN:13,_RNvNtNtCscuLvcX4xFix_3aoc5day0111data_to_vec19parse_string_to_int
FN:52,_RNvNtNtNtCscuLvcX4xFix_3aoc5day0111data_to_vec5tests13make_raw_data
FN:23,_RNvNtNtNtCscuLvcX4xFix_3aoc5day0111data_to_vec5testss_23can_parse_string_to_int
FN:29,_RNvNtNtNtCscuLvcX4xFix_3aoc5day0111data_to_vec5testss_44can_parse_string_to_int_with_negative_number
FN:35,_RNvNtNtNtCscuLvcX4xFix_3aoc5day0111data_to_vec5testss_33can_parse_string_to_int_with_zero
FN:41,_RNvNtNtNtCscuLvcX4xFix_3aoc5day0111data_to_vec5testss_41can_parse_string_to_int_with_large_number
FN:47,_RNvNtNtNtCscuLvcX4xFix_3aoc5day0111data_to_vec5testss_50can_parse_string_to_int_with_large_negative_number
FN:57,_RNvNtNtNtCscuLvcX4xFix_3aoc5day0111data_to_vec5testss_31can_convert_raw_data_to_vectors
FNDA:3,_RNCNvNtNtCscuLvcX4xFix_3aoc5day0111data_to_vec11data_to_vec0B7_
FNDA:1,_RNvNtNtCscuLvcX4xFix_3aoc5day0111data_to_vec11data_to_vec
FNDA:11,_RNvNtNtCscuLvcX4xFix_3aoc5day0111data_to_vec19parse_string_to_int
FNDA:1,_RNvNtNtNtCscuLvcX4xFix_3aoc5day0111data_to_vec5tests13make_raw_data
FNDA:1,_RNvNtNtNtCscuLvcX4xFix_3aoc5day0111data_to_vec5testss_23can_parse_string_to_int
FNDA:1,_RNvNtNtNtCscuLvcX4xFix_3aoc5day0111data_to_vec5testss_44can_parse_string_to_int_with_negative_number
FNDA:1,_RNvNtNtNtCscuLvcX4xFix_3aoc5day0111data_to_vec5testss_33can_parse_string_to_int_with_zero
FNDA:1,_RNvNtNtNtCscuLvcX4xFix_3aoc5day0111data_to_vec5testss_41can_parse_string_to_int_with_large_number
FNDA:1,_RNvNtNtNtCscuLvcX4xFix_3aoc5day0111data_to_vec5testss_50can_parse_string_to_int_with_large_negative_number
FNDA:1,_RNvNtNtNtCscuLvcX4xFix_3aoc5day0111data_to_vec5testss_31can_convert_raw_data_to_vectors
FNF:10
FNH:10
DA:1,1
DA:2,1
DA:3,1
DA:4,1
DA:5,3
DA:6,3
DA:7,3
DA:8,3
DA:9,1
DA:10,1
DA:11,1
DA:13,11
DA:14,11
DA:15,11
DA:23,1
DA:24,1
DA:25,1
DA:26,1
DA:29,1
DA:30,1
DA:31,1
DA:32,1
DA:35,1
DA:36,1
DA:37,1
DA:38,1
DA:41,1
DA:42,1
DA:43,1
DA:44,1
DA:47,1
DA:48,1
DA:49,1
DA:50,1
DA:52,1
DA:53,1
DA:54,1
DA:57,1
DA:58,1
DA:59,1
DA:60,1
DA:61,1
DA:62,1
BRF:0
BRH:0
LF:45
LH:45
end_of_record
SF:/Users/andy/dev/advent-of-code-24/src/day01/sum_sorted_absolute_difference.rs
FN:36,_RNvMNtNtCscuLvcX4xFix_3aoc5day0130sum_sorted_absolute_differenceNtB2_19SortedAbsDiffSummer31sum_sorted_absolute_differences
FN:55,_RNvNtNtNtCscuLvcX4xFix_3aoc5day0130sum_sorted_absolute_difference5testss_20can_make_data_struct
FN:62,_RNvNtNtNtCscuLvcX4xFix_3aoc5day0130sum_sorted_absolute_difference5testss_38constructor_is_identical_to_new_method
FN:75,_RNvNtNtNtCscuLvcX4xFix_3aoc5day0130sum_sorted_absolute_difference5testss_33can_calculate_absolute_difference
FN:85,_RNvNtNtNtCscuLvcX4xFix_3aoc5day0130sum_sorted_absolute_difference5testss_52can_calculate_absolute_difference_with_empty_vectors
FN:92,_RNvNtNtNtCscuLvcX4xFix_3aoc5day0130sum_sorted_absolute_difference5testss_41can_calculate_sum_of_absolute_differences
FN:102,_RNvNtNtNtCscuLvcX4xFix_3aoc5day0130sum_sorted_absolute_difference5testss_29can_sort_two_vectors_in_place
FN:114,_RNvNtNtNtCscuLvcX4xFix_3aoc5day0130sum_sorted_absolute_difference5testss_13can_load_vecs
FN:24,_RNCNvMNtNtCscuLvcX4xFix_3aoc5day0130sum_sorted_absolute_differenceNtB4_19SortedAbsDiffSummer19absolute_difference0B8_
FN:43,_RNCNvMNtNtCscuLvcX4xFix_3aoc5day0130sum_sorted_absolute_differenceNtB4_19SortedAbsDiffSummer4load0B8_
FN:44,_RNCNvMNtNtCscuLvcX4xFix_3aoc5day0130sum_sorted_absolute_differenceNtB4_19SortedAbsDiffSummer4loads_0B8_
FN:77,_RNCNvNtNtNtCscuLvcX4xFix_3aoc5day0130sum_sorted_absolute_difference5testss_33can_calculate_absolute_difference0B9_
FN:78,_RNCNvNtNtNtCscuLvcX4xFix_3aoc5day0130sum_sorted_absolute_difference5testss_33can_calculate_absolute_differences_0B9_
FN:94,_RNCNvNtNtNtCscuLvcX4xFix_3aoc5day0130sum_sorted_absolute_difference5testss_41can_calculate_sum_of_absolute_differences0B9_
FN:95,_RNCNvNtNtNtCscuLvcX4xFix_3aoc5day0130sum_sorted_absolute_difference5testss_41can_calculate_sum_of_absolute_differencess_0B9_
FN:104,_RNCNvNtNtNtCscuLvcX4xFix_3aoc5day0130sum_sorted_absolute_difference5testss_29can_sort_two_vectors_in_place0B9_
FN:105,_RNCNvNtNtNtCscuLvcX4xFix_3aoc5day0130sum_sorted_absolute_difference5testss_29can_sort_two_vectors_in_places_0B9_
FN:8,_RNvMNtNtCscuLvcX4xFix_3aoc5day0130sum_sorted_absolute_differenceNtB2_19SortedAbsDiffSummer3new
FN:15,_RNvMNtNtCscuLvcX4xFix_3aoc5day0130sum_sorted_absolute_differenceNtB2_19SortedAbsDiffSummer25sort_two_vectors_in_place
FN:20,_RNvMNtNtCscuLvcX4xFix_3aoc5day0130sum_sorted_absolute_differenceNtB2_19SortedAbsDiffSummer19absolute_difference
FN:32,_RNvMNtNtCscuLvcX4xFix_3aoc5day0130sum_sorted_absolute_differenceNtB2_19SortedAbsDiffSummer24sum_absolute_differences
FN:41,_RNvMNtNtCscuLvcX4xFix_3aoc5day0130sum_sorted_absolute_differenceNtB2_19SortedAbsDiffSummer4load
FNDA:0,_RNvMNtNtCscuLvcX4xFix_3aoc5day0130sum_sorted_absolute_differenceNtB2_19SortedAbsDiffSummer31sum_sorted_absolute_differences
FNDA:1,_RNvNtNtNtCscuLvcX4xFix_3aoc5day0130sum_sorted_absolute_difference5testss_20can_make_data_struct
FNDA:1,_RNvNtNtNtCscuLvcX4xFix_3aoc5day0130sum_sorted_absolute_difference5testss_38constructor_is_identical_to_new_method
FNDA:1,_RNvNtNtNtCscuLvcX4xFix_3aoc5day0130sum_sorted_absolute_difference5testss_33can_calculate_absolute_difference
FNDA:1,_RNvNtNtNtCscuLvcX4xFix_3aoc5day0130sum_sorted_absolute_difference5testss_52can_calculate_absolute_difference_with_empty_vectors
FNDA:1,_RNvNtNtNtCscuLvcX4xFix_3aoc5day0130sum_sorted_absolute_difference5testss_41can_calculate_sum_of_absolute_differences
FNDA:1,_RNvNtNtNtCscuLvcX4xFix_3aoc5day0130sum_sorted_absolute_difference5testss_29can_sort_two_vectors_in_place
FNDA:1,_RNvNtNtNtCscuLvcX4xFix_3aoc5day0130sum_sorted_absolute_difference5testss_13can_load_vecs
FNDA:10,_RNCNvMNtNtCscuLvcX4xFix_3aoc5day0130sum_sorted_absolute_differenceNtB4_19SortedAbsDiffSummer19absolute_difference0B8_
FNDA:5,_RNCNvMNtNtCscuLvcX4xFix_3aoc5day0130sum_sorted_absolute_differenceNtB4_19SortedAbsDiffSummer4load0B8_
FNDA:5,_RNCNvMNtNtCscuLvcX4xFix_3aoc5day0130sum_sorted_absolute_differenceNtB4_19SortedAbsDiffSummer4loads_0B8_
FNDA:5,_RNCNvNtNtNtCscuLvcX4xFix_3aoc5day0130sum_sorted_absolute_difference5testss_33can_calculate_absolute_difference0B9_
FNDA:5,_RNCNvNtNtNtCscuLvcX4xFix_3aoc5day0130sum_sorted_absolute_difference5testss_33can_calculate_absolute_differences_0B9_
FNDA:5,_RNCNvNtNtNtCscuLvcX4xFix_3aoc5day0130sum_sorted_absolute_difference5testss_41can_calculate_sum_of_absolute_differences0B9_
FNDA:5,_RNCNvNtNtNtCscuLvcX4xFix_3aoc5day0130sum_sorted_absolute_difference5testss_41can_calculate_sum_of_absolute_differencess_0B9_
FNDA:5,_RNCNvNtNtNtCscuLvcX4xFix_3aoc5day0130sum_sorted_absolute_difference5testss_29can_sort_two_vectors_in_place0B9_
FNDA:5,_RNCNvNtNtNtCscuLvcX4xFix_3aoc5day0130sum_sorted_absolute_difference5testss_29can_sort_two_vectors_in_places_0B9_
FNDA:7,_RNvMNtNtCscuLvcX4xFix_3aoc5day0130sum_sorted_absolute_differenceNtB2_19SortedAbsDiffSummer3new
FNDA:1,_RNvMNtNtCscuLvcX4xFix_3aoc5day0130sum_sorted_absolute_differenceNtB2_19SortedAbsDiffSummer25sort_two_vectors_in_place
FNDA:3,_RNvMNtNtCscuLvcX4xFix_3aoc5day0130sum_sorted_absolute_differenceNtB2_19SortedAbsDiffSummer19absolute_difference
FNDA:1,_RNvMNtNtCscuLvcX4xFix_3aoc5day0130sum_sorted_absolute_differenceNtB2_19SortedAbsDiffSummer24sum_absolute_differences
FNDA:2,_RNvMNtNtCscuLvcX4xFix_3aoc5day0130sum_sorted_absolute_differenceNtB2_19SortedAbsDiffSummer4load
FNF:22
FNH:21
DA:8,7
DA:9,7
DA:10,7
DA:11,7
DA:12,7
DA:13,7
DA:15,1
DA:16,1
DA:17,1
DA:18,1
DA:20,3
DA:21,3
DA:22,3
DA:23,3
DA:24,10
DA:25,10
DA:26,10
DA:27,10
DA:28,10
DA:29,3
DA:30,3
DA:32,1
DA:33,1
DA:34,1
DA:36,0
DA:37,0
DA:38,0
DA:39,0
DA:41,2
DA:42,2
DA:43,5
DA:44,5
DA:45,0
DA:47,2
DA:55,1
DA:56,1
DA:57,1
DA:58,1
DA:59,1
DA:62,1
DA:63,1
DA:64,1
DA:65,1
DA:66,1
DA:67,1
DA:69,1
DA:70,1
DA:71,1
DA:72,1
DA:75,1
DA:76,1
DA:77,5
DA:78,5
DA:79,1
DA:80,1
DA:81,1
DA:82,1
DA:85,1
DA:86,1
DA:87,1
DA:88,1
DA:89,1
DA:92,1
DA:93,1
DA:94,5
DA:95,5
DA:96,1
DA:97,1
DA:98,1
DA:99,1
DA:102,1
DA:103,1
DA:104,5
DA:105,5
DA:106,1
DA:107,1
DA:108,1
DA:109,1
DA:110,1
DA:111,1
DA:114,1
DA:115,1
DA:116,1
DA:117,1
DA:118,1
DA:119,1
DA:120,1
DA:121,1
BRF:0
BRH:0
LF:98
LH:93
end_of_record
SF:/Users/andy/dev/advent-of-code-24/src/day01/total_similarity_score.rs
FN:9,_RNCNvNtNtCscuLvcX4xFix_3aoc5day0122total_similarity_score22total_similarity_score0B7_
FN:5,_RNvNtNtCscuLvcX4xFix_3aoc5day0122total_similarity_score22total_similarity_score
FN:14,_RNvNtNtCscuLvcX4xFix_3aoc5day0122total_similarity_score18map_value_to_score
FN:21,_RNvNtNtCscuLvcX4xFix_3aoc5day0122total_similarity_score5score
FN:29,_RNvNtNtNtCscuLvcX4xFix_3aoc5day0122total_similarity_score5tests13get_test_data
FN:34,_RNvNtNtNtCscuLvcX4xFix_3aoc5day0122total_similarity_score5testss_17get_3s_score_of_9
FN:42,_RNvNtNtNtCscuLvcX4xFix_3aoc5day0122total_similarity_score5testss_17get_4s_score_of_4
FN:50,_RNvNtNtNtCscuLvcX4xFix_3aoc5day0122total_similarity_score5testss_17get_2s_score_of_0
FN:58,_RNvNtNtNtCscuLvcX4xFix_3aoc5day0122total_similarity_score5testss_17get_1s_score_of_0
FN:66,_RNvNtNtNtCscuLvcX4xFix_3aoc5day0122total_similarity_score5testss_26get_total_similarity_score
FNDA:6,_RNCNvNtNtCscuLvcX4xFix_3aoc5day0122total_similarity_score22total_similarity_score0B7_
FNDA:1,_RNvNtNtCscuLvcX4xFix_3aoc5day0122total_similarity_score22total_similarity_score
FNDA:10,_RNvNtNtCscuLvcX4xFix_3aoc5day0122total_similarity_score18map_value_to_score
FNDA:10,_RNvNtNtCscuLvcX4xFix_3aoc5day0122total_similarity_score5score
FNDA:5,_RNvNtNtNtCscuLvcX4xFix_3aoc5day0122total_similarity_score5tests13get_test_data
FNDA:1,_RNvNtNtNtCscuLvcX4xFix_3aoc5day0122total_similarity_score5testss_17get_3s_score_of_9
FNDA:1,_RNvNtNtNtCscuLvcX4xFix_3aoc5day0122total_similarity_score5testss_17get_4s_score_of_4
FNDA:1,_RNvNtNtNtCscuLvcX4xFix_3aoc5day0122total_similarity_score5testss_17get_2s_score_of_0
FNDA:1,_RNvNtNtNtCscuLvcX4xFix_3aoc5day0122total_similarity_score5testss_17get_1s_score_of_0
FNDA:1,_RNvNtNtNtCscuLvcX4xFix_3aoc5day0122total_similarity_score5testss_26get_total_similarity_score
FNF:10
FNH:10
DA:5,1
DA:6,1
DA:7,1
DA:8,1
DA:9,6
DA:10,1
DA:11,1
DA:12,1
DA:14,10
DA:15,10
DA:16,10
DA:17,10
DA:18,10
DA:19,10
DA:21,10
DA:22,10
DA:23,10
DA:29,5
DA:30,5
DA:31,5
DA:34,1
DA:35,1
DA:36,1
DA:37,1
DA:38,1
DA:39,1
DA:42,1
DA:43,1
DA:44,1
DA:45,1
DA:46,1
DA:47,1
DA:50,1
DA:51,1
DA:52,1
DA:53,1
DA:54,1
DA:55,1
DA:58,1
DA:59,1
DA:60,1
DA:61,1
DA:62,1
DA:63,1
DA:66,1
DA:67,1
DA:68,1
DA:69,1
DA:70,1
DA:71,1
BRF:0
BRH:0
LF:51
LH:51
end_of_record
SF:/Users/andy/dev/advent-of-code-24/src/day02/count_safe_reports.rs
FN:3,_RNvNtNtCscuLvcX4xFix_3aoc5day0218count_safe_reports18count_safe_reports
FN:6,_RNCNvNtNtCscuLvcX4xFix_3aoc5day0218count_safe_reports18count_safe_reports0B7_
FN:20,_RNvNtNtNtCscuLvcX4xFix_3aoc5day0218count_safe_reports5tests11get_reports
FN:31,_RNvNtNtNtCscuLvcX4xFix_3aoc5day0218count_safe_reports5testss_22can_count_safe_reports
FNDA:1,_RNvNtNtCscuLvcX4xFix_3aoc5day0218count_safe_reports18count_safe_reports
FNDA:5,_RNCNvNtNtCscuLvcX4xFix_3aoc5day0218count_safe_reports18count_safe_reports0B7_
FNDA:1,_RNvNtNtNtCscuLvcX4xFix_3aoc5day0218count_safe_reports5tests11get_reports
FNDA:1,_RNvNtNtNtCscuLvcX4xFix_3aoc5day0218count_safe_reports5testss_22can_count_safe_reports
FNF:4
FNH:4
DA:3,1
DA:4,1
DA:5,1
DA:6,5
DA:7,5
DA:8,5
DA:9,2
DA:10,3
DA:11,5
DA:12,1
DA:13,1
DA:14,1
DA:20,1
DA:21,1
DA:22,1
DA:23,1
DA:24,1
DA:25,1
DA:26,1
DA:27,1
DA:28,1
DA:31,1
DA:32,1
DA:33,1
DA:34,1
DA:35,1
BRF:0
BRH:0
LF:28
LH:28
end_of_record
SF:/Users/andy/dev/advent-of-code-24/src/day02/is_safe.rs
FN:3,_RNvNtNtCscuLvcX4xFix_3aoc5day027is_safe7is_safe
FN:7,_RNvNtNtCscuLvcX4xFix_3aoc5day027is_safe19generic_report_test
FN:11,_RNvNtNtCscuLvcX4xFix_3aoc5day027is_safe18generic_comparison
FN:15,_RNvNtNtCscuLvcX4xFix_3aoc5day027is_safe11is_monotone
FN:19,_RNvNtNtCscuLvcX4xFix_3aoc5day027is_safe23is_diff_between_1_and_3
FN:8,_RNCNvNtNtCscuLvcX4xFix_3aoc5day027is_safe19generic_report_test0B7_
FN:16,_RNCNvNtNtCscuLvcX4xFix_3aoc5day027is_safe11is_monotone0B7_
FN:16,_RNCNvNtNtCscuLvcX4xFix_3aoc5day027is_safe11is_monotones_0B7_
FN:20,_RNCNvNtNtCscuLvcX4xFix_3aoc5day027is_safe23is_diff_between_1_and_30B7_
FN:21,_RNCNCNvNtNtCscuLvcX4xFix_3aoc5day027is_safe23is_diff_between_1_and_300B9_
FN:22,_RNCNCNvNtNtCscuLvcX4xFix_3aoc5day027is_safe23is_diff_between_1_and_30s_0B9_
FN:35,_RNvNtNtNtCscuLvcX4xFix_3aoc5day027is_safe5testss_56can_determine_if_either_all_increasing_or_all_decreasing
FN:42,_RNvNtNtNtCscuLvcX4xFix_3aoc5day027is_safe5testss_62can_determine_if_diff_between_sorted_values_is_between_1_and_3
FN:49,_RNvNtNtNtCscuLvcX4xFix_3aoc5day027is_safe5testss_31can_determine_if_report_is_safe
FN:56,_RNvNtNtNtCscuLvcX4xFix_3aoc5day027is_safe5testss_35can_tell_not_safe_when_not_monotone
FN:62,_RNvNtNtNtCscuLvcX4xFix_3aoc5day027is_safe5testss_54can_tell_not_safe_when_min_diff_between_values_is_lt_1
FN:68,_RNvNtNtNtCscuLvcX4xFix_3aoc5day027is_safe5testss_54can_tell_not_safe_when_max_diff_between_values_is_gt_3
FN:74,_RNvNtNtNtCscuLvcX4xFix_3aoc5day027is_safe5testss_74recognizes_that_increasingvaluesreport_and_decreasingvaluesreport_are_safe
FN:80,_RNvNtNtNtCscuLvcX4xFix_3aoc5day027is_safe5testss_19test_is_safe_case_1
FN:86,_RNvNtNtNtCscuLvcX4xFix_3aoc5day027is_safe5testss_19test_is_safe_case_2
FN:92,_RNvNtNtNtCscuLvcX4xFix_3aoc5day027is_safe5testss_19test_is_safe_case_3
FN:98,_RNvNtNtNtCscuLvcX4xFix_3aoc5day027is_safe5testss_19test_is_safe_case_4
FN:104,_RNvNtNtNtCscuLvcX4xFix_3aoc5day027is_safe5testss_19test_is_safe_case_5
FNDA:18,_RNvNtNtCscuLvcX4xFix_3aoc5day027is_safe7is_safe
FNDA:50,_RNvNtNtCscuLvcX4xFix_3aoc5day027is_safe19generic_report_test
FNDA:186,_RNvNtNtCscuLvcX4xFix_3aoc5day027is_safe18generic_comparison
FNDA:21,_RNvNtNtCscuLvcX4xFix_3aoc5day027is_safe11is_monotone
FNDA:16,_RNvNtNtCscuLvcX4xFix_3aoc5day027is_safe23is_diff_between_1_and_3
FNDA:229,_RNCNvNtNtCscuLvcX4xFix_3aoc5day027is_safe19generic_report_test0B7_
FNDA:83,_RNCNvNtNtCscuLvcX4xFix_3aoc5day027is_safe11is_monotone0B7_
FNDA:53,_RNCNvNtNtCscuLvcX4xFix_3aoc5day027is_safe11is_monotones_0B7_
FNDA:93,_RNCNvNtNtCscuLvcX4xFix_3aoc5day027is_safe23is_diff_between_1_and_30B7_
FNDA:93,_RNCNCNvNtNtCscuLvcX4xFix_3aoc5day027is_safe23is_diff_between_1_and_300B9_
FNDA:93,_RNCNCNvNtNtCscuLvcX4xFix_3aoc5day027is_safe23is_diff_between_1_and_30s_0B9_
FNDA:1,_RNvNtNtNtCscuLvcX4xFix_3aoc5day027is_safe5testss_56can_determine_if_either_all_increasing_or_all_decreasing
FNDA:1,_RNvNtNtNtCscuLvcX4xFix_3aoc5day027is_safe5testss_62can_determine_if_diff_between_sorted_values_is_between_1_and_3
FNDA:1,_RNvNtNtNtCscuLvcX4xFix_3aoc5day027is_safe5testss_31can_determine_if_report_is_safe
FNDA:1,_RNvNtNtNtCscuLvcX4xFix_3aoc5day027is_safe5testss_35can_tell_not_safe_when_not_monotone
FNDA:1,_RNvNtNtNtCscuLvcX4xFix_3aoc5day027is_safe5testss_54can_tell_not_safe_when_min_diff_between_values_is_lt_1
FNDA:1,_RNvNtNtNtCscuLvcX4xFix_3aoc5day027is_safe5testss_54can_tell_not_safe_when_max_diff_between_values_is_gt_3
FNDA:1,_RNvNtNtNtCscuLvcX4xFix_3aoc5day027is_safe5testss_74recognizes_that_increasingvaluesreport_and_decreasingvaluesreport_are_safe
FNDA:1,_RNvNtNtNtCscuLvcX4xFix_3aoc5day027is_safe5testss_19test_is_safe_case_1
FNDA:1,_RNvNtNtNtCscuLvcX4xFix_3aoc5day027is_safe5testss_19test_is_safe_case_2
FNDA:1,_RNvNtNtNtCscuLvcX4xFix_3aoc5day027is_safe5testss_19test_is_safe_case_3
FNDA:1,_RNvNtNtNtCscuLvcX4xFix_3aoc5day027is_safe5testss_19test_is_safe_case_4
FNDA:1,_RNvNtNtNtCscuLvcX4xFix_3aoc5day027is_safe5testss_19test_is_safe_case_5
FNF:23
FNH:23
DA:3,18
DA:4,18
DA:5,18
DA:7,50
DA:8,229
DA:9,50
DA:11,186
DA:12,186
DA:13,186
DA:15,21
DA:16,83
DA:17,21
DA:19,16
DA:20,93
DA:21,93
DA:22,93
DA:23,93
DA:24,16
DA:35,1
DA:36,1
DA:37,1
DA:38,1
DA:39,1
DA:42,1
DA:43,1
DA:44,1
DA:45,1
DA:46,1
DA:49,1
DA:50,1
DA:51,1
DA:52,1
DA:53,1
DA:56,1
DA:57,1
DA:58,1
DA:59,1
DA:62,1
DA:63,1
DA:64,1
DA:65,1
DA:68,1
DA:69,1
DA:70,1
DA:71,1
DA:74,1
DA:75,1
DA:76,1
DA:77,1
DA:80,1
DA:81,1
DA:82,1
DA:83,1
DA:86,1
DA:87,1
DA:88,1
DA:89,1
DA:92,1
DA:93,1
DA:94,1
DA:95,1
DA:98,1
DA:99,1
DA:100,1
DA:101,1
DA:104,1
DA:105,1
DA:106,1
DA:107,1
BRF:0
BRH:0
LF:76
LH:76
end_of_record
SF:/Users/andy/dev/advent-of-code-24/src/main.rs
FN:1,_RNvCsjlnxLwHTGTJ_3aoc4main
FNDA:0,_RNvCsjlnxLwHTGTJ_3aoc4main
FNF:1
FNH:0
DA:1,0
DA:2,0
DA:3,0
BRF:0
BRH:0
LF:3
LH:0
end_of_record
SF:/Users/andy/dev/advent-of-code-24/src/util/absolute_difference.rs
FN:1,_RNvNtNtCscuLvcX4xFix_3aoc4util19absolute_difference19absolute_difference
FN:14,_RNvNtNtNtCscuLvcX4xFix_3aoc4util19absolute_difference5testss_33can_calculate_absolute_difference
FN:20,_RNvNtNtNtCscuLvcX4xFix_3aoc4util19absolute_difference5testss_54can_calculate_absolute_difference_with_negative_number
FN:26,_RNvNtNtNtCscuLvcX4xFix_3aoc4util19absolute_difference5testss_43can_calculate_absolute_difference_with_zero
FN:32,_RNvNtNtNtCscuLvcX4xFix_3aoc4util19absolute_difference5testss_51can_calculate_absolute_difference_with_large_number
FN:38,_RNvNtNtNtCscuLvcX4xFix_3aoc4util19absolute_difference5testss_60can_calculate_absolute_difference_with_large_negative_number
FNDA:201,_RNvNtNtCscuLvcX4xFix_3aoc4util19absolute_difference19absolute_difference
FNDA:1,_RNvNtNtNtCscuLvcX4xFix_3aoc4util19absolute_difference5testss_33can_calculate_absolute_difference
FNDA:1,_RNvNtNtNtCscuLvcX4xFix_3aoc4util19absolute_difference5testss_54can_calculate_absolute_difference_with_negative_number
FNDA:1,_RNvNtNtNtCscuLvcX4xFix_3aoc4util19absolute_difference5testss_43can_calculate_absolute_difference_with_zero
FNDA:1,_RNvNtNtNtCscuLvcX4xFix_3aoc4util19absolute_difference5testss_51can_calculate_absolute_difference_with_large_number
FNDA:1,_RNvNtNtNtCscuLvcX4xFix_3aoc4util19absolute_difference5testss_60can_calculate_absolute_difference_with_large_negative_number
FNF:6
FNH:6
DA:1,201
DA:2,201
DA:3,92
DA:5,109
DA:7,201
DA:14,1
DA:15,1
DA:16,1
DA:17,1
DA:20,1
DA:21,1
DA:22,1
DA:23,1
DA:26,1
DA:27,1
DA:28,1
DA:29,1
DA:32,1
DA:33,1
DA:34,1
DA:35,1
DA:38,1
DA:39,1
DA:40,1
DA:41,1
BRF:0
BRH:0
LF:25
LH:25
end_of_record
SF:/Users/andy/dev/advent-of-code-24/src/util/parser.rs
FN:11,_RNvMNtNtCscuLvcX4xFix_3aoc4util6parserNtB2_6Parser3new
FN:17,_RNvMNtNtCscuLvcX4xFix_3aoc4util6parserNtB2_6Parser11split_lines
FN:21,_RNvMNtNtCscuLvcX4xFix_3aoc4util6parserNtB2_6Parser8split_at
FN:35,_RNvXs_NtNtCscuLvcX4xFix_3aoc4util6parserNtB4_6ParserNtB4_8Parsable5parse
FN:18,_RNCNvMNtNtCscuLvcX4xFix_3aoc4util6parserNtB4_6Parser11split_lines0B8_
FN:26,_RNCNvMNtNtCscuLvcX4xFix_3aoc4util6parserNtB4_6Parser8split_at0B8_
FN:27,_RNCNvMNtNtCscuLvcX4xFix_3aoc4util6parserNtB4_6Parser8split_ats_0B8_
FN:38,_RNCNvXs_NtNtCscuLvcX4xFix_3aoc4util6parserNtB6_6ParserNtB6_8Parsable5parse0Ba_
FN:44,_RNCNvXs_NtNtCscuLvcX4xFix_3aoc4util6parserNtB6_6ParserNtB6_8Parsable5parses_0Ba_
FN:55,_RNvNtNtNtCscuLvcX4xFix_3aoc4util6parser4test17get_file_contents
FN:60,_RNvNtNtNtCscuLvcX4xFix_3aoc4util6parser4test25get_expected_parse_output
FN:68,_RNvNtNtNtCscuLvcX4xFix_3aoc4util6parser4test22can_parse_by_delimiter
FN:76,_RNvNtNtNtCscuLvcX4xFix_3aoc4util6parser4tests_33can_create_parser_with_new_method
FN:82,_RNvNtNtNtCscuLvcX4xFix_3aoc4util6parser4tests_38constructor_is_identical_to_new_method
FN:91,_RNvNtNtNtCscuLvcX4xFix_3aoc4util6parser4tests_24parser_can_split_by_line
FN:107,_RNvNtNtNtCscuLvcX4xFix_3aoc4util6parser4tests_30can_split_by_vec_of_delimiters
FN:115,_RNvNtNtNtCscuLvcX4xFix_3aoc4util6parser4tests_18can_parse_by_comma
FN:120,_RNvNtNtNtCscuLvcX4xFix_3aoc4util6parser4tests_18can_parse_by_space
FN:125,_RNvNtNtNtCscuLvcX4xFix_3aoc4util6parser4tests_16can_parse_by_tab
FN:130,_RNvNtNtNtCscuLvcX4xFix_3aoc4util6parser4tests_44parser_will_ignore_empty_lines_if_they_exist
FNDA:8,_RNvMNtNtCscuLvcX4xFix_3aoc4util6parserNtB2_6Parser3new
FNDA:1,_RNvMNtNtCscuLvcX4xFix_3aoc4util6parserNtB2_6Parser11split_lines
FNDA:1,_RNvMNtNtCscuLvcX4xFix_3aoc4util6parserNtB2_6Parser8split_at
FNDA:4,_RNvXs_NtNtCscuLvcX4xFix_3aoc4util6parserNtB4_6ParserNtB4_8Parsable5parse
FNDA:4,_RNCNvMNtNtCscuLvcX4xFix_3aoc4util6parserNtB4_6Parser11split_lines0B8_
FNDA:3,_RNCNvMNtNtCscuLvcX4xFix_3aoc4util6parserNtB4_6Parser8split_at0B8_
FNDA:5,_RNCNvMNtNtCscuLvcX4xFix_3aoc4util6parserNtB4_6Parser8split_ats_0B8_
FNDA:13,_RNCNvXs_NtNtCscuLvcX4xFix_3aoc4util6parserNtB6_6ParserNtB6_8Parsable5parse0Ba_
FNDA:13,_RNCNvXs_NtNtCscuLvcX4xFix_3aoc4util6parserNtB6_6ParserNtB6_8Parsable5parses_0Ba_
FNDA:1,_RNvNtNtNtCscuLvcX4xFix_3aoc4util6parser4test17get_file_contents
FNDA:4,_RNvNtNtNtCscuLvcX4xFix_3aoc4util6parser4test25get_expected_parse_output
FNDA:4,_RNvNtNtNtCscuLvcX4xFix_3aoc4util6parser4test22can_parse_by_delimiter
FNDA:1,_RNvNtNtNtCscuLvcX4xFix_3aoc4util6parser4tests_33can_create_parser_with_new_method
FNDA:1,_RNvNtNtNtCscuLvcX4xFix_3aoc4util6parser4tests_38constructor_is_identical_to_new_method
FNDA:1,_RNvNtNtNtCscuLvcX4xFix_3aoc4util6parser4tests_24parser_can_split_by_line
FNDA:1,_RNvNtNtNtCscuLvcX4xFix_3aoc4util6parser4tests_30can_split_by_vec_of_delimiters
FNDA:1,_RNvNtNtNtCscuLvcX4xFix_3aoc4util6parser4tests_18can_parse_by_comma
FNDA:1,_RNvNtNtNtCscuLvcX4xFix_3aoc4util6parser4tests_18can_parse_by_space
FNDA:1,_RNvNtNtNtCscuLvcX4xFix_3aoc4util6parser4tests_16can_parse_by_tab
FNDA:1,_RNvNtNtNtCscuLvcX4xFix_3aoc4util6parser4tests_44parser_will_ignore_empty_lines_if_they_exist
FNF:20
FNH:20
DA:11,8
DA:12,8
DA:13,8
DA:14,8
DA:15,8
DA:17,1
DA:18,4
DA:19,1
DA:21,1
DA:22,1
DA:23,3
DA:24,2
DA:25,2
DA:26,3
DA:27,5
DA:28,2
DA:29,2
DA:30,1
DA:31,1
DA:35,4
DA:36,4
DA:37,4
DA:38,13
DA:39,13
DA:40,1
DA:41,12
DA:42,12
DA:43,13
DA:44,13
DA:45,4
DA:46,4
DA:55,1
DA:56,1
DA:57,1
DA:58,1
DA:60,4
DA:61,4
DA:62,4
DA:63,4
DA:64,4
DA:65,4
DA:66,4
DA:68,4
DA:69,4
DA:70,4
DA:71,4
DA:72,4
DA:73,4
DA:76,1
DA:77,1
DA:78,1
DA:79,1
DA:82,1
DA:83,1
DA:84,1
DA:85,1
DA:86,1
DA:87,1
DA:88,1
DA:91,1
DA:92,1
DA:93,1
DA:94,1
DA:95,1
DA:96,1
DA:97,1
DA:98,1
DA:99,1
DA:100,1
DA:101,1
DA:102,1
DA:103,1
DA:104,1
DA:107,1
DA:108,1
DA:109,1
DA:110,1
DA:111,1
DA:112,1
DA:115,1
DA:116,1
DA:117,1
DA:120,1
DA:121,1
DA:122,1
DA:125,1
DA:126,1
DA:127,1
DA:130,1
DA:131,1
DA:132,1
BRF:0
BRH:0
LF:97
LH:97
end_of_record
SF:/Users/andy/dev/advent-of-code-24/src/util/reader.rs
FN:10,_RNvMNtNtCscuLvcX4xFix_3aoc4util6readerNtB2_6Reader3new
FN:17,_RNvMNtNtCscuLvcX4xFix_3aoc4util6readerNtB2_6Reader4read
FN:29,_RNvNtNtNtCscuLvcX4xFix_3aoc4util6reader5testss_15can_make_reader
FN:35,_RNvNtNtNtCscuLvcX4xFix_3aoc4util6reader5testss_39constructor_and_new_method_are_the_same
FN:46,_RNvNtNtNtCscuLvcX4xFix_3aoc4util6reader5testss_29reader_can_read_a_simple_file
FN:54,_RNvNtNtNtCscuLvcX4xFix_3aoc4util6reader5testss_63reader_tells_me_when_something_goes_wrong_with_reading_the_file
FN:60,_RNvNtNtNtCscuLvcX4xFix_3aoc4util6reader5testss_42reader_can_read_a_file_with_multiple_lines
FNDA:6,_RNvMNtNtCscuLvcX4xFix_3aoc4util6readerNtB2_6Reader3new
FNDA:4,_RNvMNtNtCscuLvcX4xFix_3aoc4util6readerNtB2_6Reader4read
FNDA:1,_RNvNtNtNtCscuLvcX4xFix_3aoc4util6reader5testss_15can_make_reader
FNDA:1,_RNvNtNtNtCscuLvcX4xFix_3aoc4util6reader5testss_39constructor_and_new_method_are_the_same
FNDA:1,_RNvNtNtNtCscuLvcX4xFix_3aoc4util6reader5testss_29reader_can_read_a_simple_file
FNDA:1,_RNvNtNtNtCscuLvcX4xFix_3aoc4util6reader5testss_63reader_tells_me_when_something_goes_wrong_with_reading_the_file
FNDA:1,_RNvNtNtNtCscuLvcX4xFix_3aoc4util6reader5testss_42reader_can_read_a_file_with_multiple_lines
FNF:7
FNH:7
DA:10,6
DA:11,6
DA:12,6
DA:13,6
DA:14,6
DA:15,6
DA:17,4
DA:18,4
DA:19,4
DA:29,1
DA:30,1
DA:31,1
DA:32,1
DA:35,1
DA:36,1
DA:37,1
DA:38,1
DA:39,1
DA:40,1
DA:41,1
DA:42,1
DA:43,1
DA:46,1
DA:47,1
DA:48,1
DA:49,1
DA:50,1
DA:54,1
DA:55,1
DA:56,1
DA:57,1
DA:60,1
DA:61,1
DA:62,1
DA:63,1
DA:64,1
BRF:0
BRH:0
LF:36
LH:36
end_of_record